target datalayout = "e-m:e-p270:32:32-p271:32:32-p272:64:64-i64:64-i128:128-f80:128-n8:16:32:64-S128"
target triple = "x86_64-pc-linux-gnu"

%struct._object = type { %union.anon, ptr }
%union.anon = type { i64 }
%struct.PyVarObject = type { %struct._object, i64 }
%struct.anon = type { i32, i32 }
%struct.dequeobject = type { %struct.PyVarObject, ptr, ptr, i64, i64, i64, i64, i64, [16 x ptr], ptr }
%struct.BLOCK = type { ptr, [64 x ptr], ptr }
%struct.dequeiterobject = type { %struct._object, ptr, i64, ptr, i64, i64 }

@PyExc_RuntimeError = external global ptr, align 8
@.str.39 = private unnamed_addr constant [31 x i8] c"deque mutated during iteration\00", align 1

; Function Attrs: alwaysinline nounwind uwtable
define internal void @Py_INCREF(ptr noundef %0) #4 {
  %2 = alloca ptr, align 8
  %3 = alloca i32, align 4
  %4 = alloca i32, align 4
  store ptr %0, ptr %2, align 8, !tbaa !4
  call void @llvm.lifetime.start.p0(i64 4, ptr %3) #7
  %5 = load ptr, ptr %2, align 8, !tbaa !4
  %6 = getelementptr inbounds nuw %struct._object, ptr %5, i32 0, i32 0
  %7 = getelementptr inbounds nuw %struct.anon, ptr %6, i32 0, i32 0
  %8 = load i32, ptr %7, align 8, !tbaa !39
  store i32 %8, ptr %3, align 4, !tbaa !13
  %9 = load i32, ptr %3, align 4, !tbaa !13
  %10 = icmp slt i32 %9, 0
  br i1 %10, label %11, label %12

11:                                               ; preds = %1
  store i32 1, ptr %4, align 4
  br label %18

12:                                               ; preds = %1
  %13 = load i32, ptr %3, align 4, !tbaa !13
  %14 = add i32 %13, 1
  %15 = load ptr, ptr %2, align 8, !tbaa !4
  %16 = getelementptr inbounds nuw %struct._object, ptr %15, i32 0, i32 0
  %17 = getelementptr inbounds nuw %struct.anon, ptr %16, i32 0, i32 0
  store i32 %14, ptr %17, align 8, !tbaa !39
  store i32 0, ptr %4, align 4
  br label %18

18:                                               ; preds = %12, %11
  call void @llvm.lifetime.end.p0(i64 4, ptr %3) #7
  %19 = load i32, ptr %4, align 4
  switch i32 %19, label %21 [
    i32 0, label %20
    i32 1, label %20
  ]

20:                                               ; preds = %18, %18
  ret void

21:                                               ; preds = %18
  unreachable
}

; Function Attrs: inlinehint nounwind uwtable
define internal ptr @_Py_NewRef(ptr noundef %0) #3 {
  %2 = alloca ptr, align 8
  store ptr %0, ptr %2, align 8, !tbaa !4
  %3 = load ptr, ptr %2, align 8, !tbaa !4
  call void @Py_INCREF(ptr noundef %3)
  %4 = load ptr, ptr %2, align 8, !tbaa !4
  ret ptr %4
}

; Function Attrs: nounwind uwtable
define internal ptr @dequereviter_next_lock_held(ptr noundef %0, ptr noundef %1) #0 {
  %3 = alloca ptr, align 8
  %4 = alloca ptr, align 8
  %5 = alloca ptr, align 8
  %6 = alloca ptr, align 8
  %7 = alloca i32, align 4
  store ptr %0, ptr %4, align 8, !tbaa !9
  store ptr %1, ptr %5, align 8, !tbaa !43
  call void @llvm.lifetime.start.p0(i64 8, ptr %6) #7
  %8 = load ptr, ptr %4, align 8, !tbaa !9
  %9 = getelementptr inbounds nuw %struct.dequeiterobject, ptr %8, i32 0, i32 5
  %10 = load i64, ptr %9, align 8, !tbaa !70
  %11 = icmp eq i64 %10, 0
  br i1 %11, label %12, label %13

12:                                               ; preds = %2
  store ptr null, ptr %3, align 8
  store i32 1, ptr %7, align 4
  br label %67

13:                                               ; preds = %2
  %14 = load ptr, ptr %4, align 8, !tbaa !9
  %15 = getelementptr inbounds nuw %struct.dequeiterobject, ptr %14, i32 0, i32 3
  %16 = load ptr, ptr %15, align 8, !tbaa !68
  %17 = getelementptr inbounds nuw %struct.dequeobject, ptr %16, i32 0, i32 5
  %18 = load i64, ptr %17, align 8, !tbaa !63
  %19 = load ptr, ptr %4, align 8, !tbaa !9
  %20 = getelementptr inbounds nuw %struct.dequeiterobject, ptr %19, i32 0, i32 4
  %21 = load i64, ptr %20, align 8, !tbaa !69
  %22 = icmp ne i64 %18, %21
  br i1 %22, label %23, label %27

23:                                               ; preds = %13
  %24 = load ptr, ptr %4, align 8, !tbaa !9
  %25 = getelementptr inbounds nuw %struct.dequeiterobject, ptr %24, i32 0, i32 5
  store i64 0, ptr %25, align 8, !tbaa !70
  %26 = load ptr, ptr @PyExc_RuntimeError, align 8, !tbaa !4
  call void @PyErr_SetString(ptr noundef %26, ptr noundef @.str.39)
  store ptr null, ptr %3, align 8
  store i32 1, ptr %7, align 4
  br label %67

27:                                               ; preds = %13
  %28 = load ptr, ptr %4, align 8, !tbaa !9
  %29 = getelementptr inbounds nuw %struct.dequeiterobject, ptr %28, i32 0, i32 1
  %30 = load ptr, ptr %29, align 8, !tbaa !65
  %31 = getelementptr inbounds nuw %struct.BLOCK, ptr %30, i32 0, i32 1
  %32 = load ptr, ptr %4, align 8, !tbaa !9
  %33 = getelementptr inbounds nuw %struct.dequeiterobject, ptr %32, i32 0, i32 2
  %34 = load i64, ptr %33, align 8, !tbaa !67
  %35 = getelementptr [64 x ptr], ptr %31, i64 0, i64 %34
  %36 = load ptr, ptr %35, align 8, !tbaa !4
  store ptr %36, ptr %6, align 8, !tbaa !4
  %37 = load ptr, ptr %4, align 8, !tbaa !9
  %38 = getelementptr inbounds nuw %struct.dequeiterobject, ptr %37, i32 0, i32 2
  %39 = load i64, ptr %38, align 8, !tbaa !67
  %40 = add i64 %39, -1
  store i64 %40, ptr %38, align 8, !tbaa !67
  %41 = load ptr, ptr %4, align 8, !tbaa !9
  %42 = getelementptr inbounds nuw %struct.dequeiterobject, ptr %41, i32 0, i32 5
  %43 = load i64, ptr %42, align 8, !tbaa !70
  %44 = add i64 %43, -1
  store i64 %44, ptr %42, align 8, !tbaa !70
  %45 = load ptr, ptr %4, align 8, !tbaa !9
  %46 = getelementptr inbounds nuw %struct.dequeiterobject, ptr %45, i32 0, i32 2
  %47 = load i64, ptr %46, align 8, !tbaa !67
  %48 = icmp slt i64 %47, 0
  br i1 %48, label %49, label %64

49:                                               ; preds = %27
  %50 = load ptr, ptr %4, align 8, !tbaa !9
  %51 = getelementptr inbounds nuw %struct.dequeiterobject, ptr %50, i32 0, i32 5
  %52 = load i64, ptr %51, align 8, !tbaa !70
  %53 = icmp sgt i64 %52, 0
  br i1 %53, label %54, label %64

54:                                               ; preds = %49
  %55 = load ptr, ptr %4, align 8, !tbaa !9
  %56 = getelementptr inbounds nuw %struct.dequeiterobject, ptr %55, i32 0, i32 1
  %57 = load ptr, ptr %56, align 8, !tbaa !65
  %58 = getelementptr inbounds nuw %struct.BLOCK, ptr %57, i32 0, i32 0
  %59 = load ptr, ptr %58, align 8, !tbaa !73
  %60 = load ptr, ptr %4, align 8, !tbaa !9
  %61 = getelementptr inbounds nuw %struct.dequeiterobject, ptr %60, i32 0, i32 1
  store ptr %59, ptr %61, align 8, !tbaa !65
  %62 = load ptr, ptr %4, align 8, !tbaa !9
  %63 = getelementptr inbounds nuw %struct.dequeiterobject, ptr %62, i32 0, i32 2
  store i64 63, ptr %63, align 8, !tbaa !67
  br label %64

64:                                               ; preds = %54, %49, %27
  %65 = load ptr, ptr %6, align 8, !tbaa !4
  %66 = call ptr @_Py_NewRef(ptr noundef %65)
  store ptr %66, ptr %3, align 8
  store i32 1, ptr %7, align 4
  br label %67

67:                                               ; preds = %64, %23, %12
  call void @llvm.lifetime.end.p0(i64 8, ptr %6) #7
  %68 = load ptr, ptr %3, align 8
  ret ptr %68
}

; Function Attrs: nounwind uwtable
define internal ptr @dequereviter_next(ptr noundef %0) #0 {
  %2 = alloca ptr, align 8
  %3 = alloca ptr, align 8
  %4 = alloca ptr, align 8
  store ptr %0, ptr %2, align 8, !tbaa !9
  call void @llvm.lifetime.start.p0(i64 8, ptr %3) #7
  call void @llvm.lifetime.start.p0(i64 8, ptr %4) #7
  %5 = load ptr, ptr %2, align 8, !tbaa !9
  %6 = getelementptr inbounds nuw %struct.dequeiterobject, ptr %5, i32 0, i32 3
  %7 = load ptr, ptr %6, align 8, !tbaa !68
  store ptr %7, ptr %4, align 8, !tbaa !43
  %8 = load ptr, ptr %2, align 8, !tbaa !9
  %9 = load ptr, ptr %4, align 8, !tbaa !43
  %10 = call ptr @dequereviter_next_lock_held(ptr noundef %8, ptr noundef %9)
  store ptr %10, ptr %3, align 8, !tbaa !4
  %11 = load ptr, ptr %3, align 8, !tbaa !4
  call void @llvm.lifetime.end.p0(i64 8, ptr %4) #7
  call void @llvm.lifetime.end.p0(i64 8, ptr %3) #7
  ret ptr %11
}