; Function Attrs: nounwind uwtable
define internal ptr @dequereviter_next(ptr noundef captures(none) %0) #0 {
  %2 = getelementptr inbounds nuw i8, ptr %0, i64 48
  %3 = load i64, ptr %2, align 8, !tbaa !64
  %4 = icmp eq i64 %3, 0
  br i1 %4, label %dequereviter_next_lock_held.exit, label %5

5:                                                ; preds = %1
  %6 = getelementptr inbounds nuw i8, ptr %0, i64 32
  %7 = load ptr, ptr %6, align 8, !tbaa !62
  %8 = getelementptr inbounds nuw i8, ptr %7, i64 56
  %9 = load i64, ptr %8, align 8, !tbaa !53
  %10 = getelementptr inbounds nuw i8, ptr %0, i64 40
  %11 = load i64, ptr %10, align 8, !tbaa !63
  %.not.i = icmp eq i64 %9, %11
  br i1 %.not.i, label %14, label %12

12:                                               ; preds = %5
  store i64 0, ptr %2, align 8, !tbaa !64
  %13 = load ptr, ptr @PyExc_RuntimeError, align 8, !tbaa !21
  tail call void @PyErr_SetString(ptr noundef %13, ptr noundef nonnull @.str.39) #9
  br label %dequereviter_next_lock_held.exit

14:                                               ; preds = %5
  %15 = getelementptr inbounds nuw i8, ptr %0, i64 16
  %16 = load ptr, ptr %15, align 8, !tbaa !58
  %17 = getelementptr inbounds nuw i8, ptr %16, i64 8
  %18 = getelementptr inbounds nuw i8, ptr %0, i64 24
  %19 = load i64, ptr %18, align 8, !tbaa !61
  %20 = getelementptr [64 x ptr], ptr %17, i64 0, i64 %19
  %21 = load ptr, ptr %20, align 8, !tbaa !21
  %22 = add i64 %19, -1
  store i64 %22, ptr %18, align 8, !tbaa !61
  %23 = add i64 %3, -1
  store i64 %23, ptr %2, align 8, !tbaa !64
  %24 = icmp slt i64 %22, 0
  %25 = icmp sgt i64 %23, 0
  %or.cond.i = and i1 %25, %24
  br i1 %or.cond.i, label %26, label %28

26:                                               ; preds = %14
  %27 = load ptr, ptr %16, align 8, !tbaa !56
  store ptr %27, ptr %15, align 8, !tbaa !58
  store i64 63, ptr %18, align 8, !tbaa !61
  br label %28

28:                                               ; preds = %26, %14
  %29 = load i32, ptr %21, align 8, !tbaa !20
  %30 = icmp slt i32 %29, 0
  br i1 %30, label %dequereviter_next_lock_held.exit, label %31

31:                                               ; preds = %28
  %32 = add nuw i32 %29, 1
  store i32 %32, ptr %21, align 8, !tbaa !20
  br label %dequereviter_next_lock_held.exit

dequereviter_next_lock_held.exit:                 ; preds = %1, %12, %28, %31
  %.0.i = phi ptr [ null, %12 ], [ null, %1 ], [ %21, %28 ], [ %21, %31 ]
  ret ptr %.0.i
}